target datalayout = "e-m:e-p270:32:32-p271:32:32-p272:64:64-i64:64-i128:128-f80:128-n8:16:32:64-S128"
target triple = "x86_64-pc-linux-gnu"

%struct.evp_cipher_st = type { i32, i32, i32, i32, i64, i32, ptr, ptr, ptr, i32, ptr, ptr, ptr, ptr, i32, ptr, ptr, ptr, %struct.CRYPTO_REF_COUNT, ptr, ptr, ptr, ptr, ptr, ptr, ptr, ptr, ptr, ptr, ptr, ptr, ptr, ptr, ptr, ptr, ptr, ptr, ptr, ptr }
%struct.CRYPTO_REF_COUNT = type { i32 }

; Function Attrs: nounwind uwtable
define ptr @EVP_CIPHER_meth_new(i32 noundef %0, i32 noundef %1, i32 noundef %2) #0 {
  %4 = alloca i32, align 4
  %5 = alloca i32, align 4
  %6 = alloca i32, align 4
  %7 = alloca ptr, align 8
  store i32 %0, ptr %4, align 4, !tbaa !3
  store i32 %1, ptr %5, align 4, !tbaa !3
  store i32 %2, ptr %6, align 4, !tbaa !3
  call void @llvm.lifetime.start.p0(i64 8, ptr %7) #4
  %8 = call ptr @evp_cipher_new()
  store ptr %8, ptr %7, align 8, !tbaa !7
  %9 = load ptr, ptr %7, align 8, !tbaa !7
  %10 = icmp ne ptr %9, null
  br i1 %10, label %11, label %23

11:                                               ; preds = %3
  %12 = load i32, ptr %4, align 4, !tbaa !3
  %13 = load ptr, ptr %7, align 8, !tbaa !7
  %14 = getelementptr inbounds nuw %struct.evp_cipher_st, ptr %13, i32 0, i32 0
  store i32 %12, ptr %14, align 8, !tbaa !10
  %15 = load i32, ptr %5, align 4, !tbaa !3
  %16 = load ptr, ptr %7, align 8, !tbaa !7
  %17 = getelementptr inbounds nuw %struct.evp_cipher_st, ptr %16, i32 0, i32 1
  store i32 %15, ptr %17, align 4, !tbaa !16
  %18 = load i32, ptr %6, align 4, !tbaa !3
  %19 = load ptr, ptr %7, align 8, !tbaa !7
  %20 = getelementptr inbounds nuw %struct.evp_cipher_st, ptr %19, i32 0, i32 2
  store i32 %18, ptr %20, align 8, !tbaa !17
  %21 = load ptr, ptr %7, align 8, !tbaa !7
  %22 = getelementptr inbounds nuw %struct.evp_cipher_st, ptr %21, i32 0, i32 5
  store i32 2, ptr %22, align 8, !tbaa !18
  br label %23

23:                                               ; preds = %11, %3
  %24 = load ptr, ptr %7, align 8, !tbaa !7
  call void @llvm.lifetime.end.p0(i64 8, ptr %7) #4
  ret ptr %24
}