; Function Attrs: nounwind uwtable
define ptr @EVP_CIPHER_meth_new(i32 noundef %0, i32 noundef %1, i32 noundef %2) local_unnamed_addr #0 {
  %4 = tail call ptr @evp_cipher_new() #5
  %.not = icmp eq ptr %4, null
  br i1 %.not, label %9, label %5

5:                                                ; preds = %3
  store i32 %0, ptr %4, align 8, !tbaa !3
  %6 = getelementptr inbounds nuw i8, ptr %4, i64 4
  store i32 %1, ptr %6, align 4, !tbaa !13
  %7 = getelementptr inbounds nuw i8, ptr %4, i64 8
  store i32 %2, ptr %7, align 8, !tbaa !14
  %8 = getelementptr inbounds nuw i8, ptr %4, i64 24
  store i32 2, ptr %8, align 8, !tbaa !15
  br label %9

9:                                                ; preds = %5, %3
  ret ptr %4
}